target datalayout = "e-m:e-p270:32:32-p271:32:32-p272:64:64-i64:64-i128:128-f80:128-n8:16:32:64-S128"
target triple = "x86_64-pc-linux-gnu"

%class.ciMethodBlocks = type { ptr, ptr, ptr, ptr, i32, i32 }
%class.ciBlock = type { i32, i32, i32, i32, i32, i32, i32 }
%class.GrowableArrayBase = type { i32, i32 }
%class.GrowableArrayView = type { %class.GrowableArrayBase, ptr }

; Function Attrs: mustprogress nounwind uwtable
define linkonce_odr hidden void @_ZN7ciBlock15clear_processedEv(ptr noundef nonnull align 4 dereferenceable(28) %0) #1 comdat align 2 {
  %2 = alloca ptr, align 8
  store ptr %0, ptr %2, align 8
  %3 = load ptr, ptr %2, align 8
  %4 = getelementptr inbounds %class.ciBlock, ptr %3, i32 0, i32 4
  %5 = load i32, ptr %4, align 4
  %6 = and i32 %5, -2
  store i32 %6, ptr %4, align 4
  ret void
}

; Function Attrs: mustprogress nounwind uwtable
define linkonce_odr hidden noundef nonnull align 8 dereferenceable(8) ptr @_ZN17GrowableArrayViewIP7ciBlockE2atEi(ptr noundef nonnull align 8 dereferenceable(16) %0, i32 noundef %1) #1 comdat align 2 {
  %3 = alloca ptr, align 8
  %4 = alloca i32, align 4
  store ptr %0, ptr %3, align 8
  store i32 %1, ptr %4, align 4
  %5 = load ptr, ptr %3, align 8
  %6 = getelementptr inbounds %class.GrowableArrayView, ptr %5, i32 0, i32 1
  %7 = load ptr, ptr %6, align 8
  %8 = load i32, ptr %4, align 4
  %9 = sext i32 %8 to i64
  %10 = getelementptr inbounds ptr, ptr %7, i64 %9
  ret ptr %10
}

; Function Attrs: mustprogress nounwind uwtable
define linkonce_odr hidden noundef i32 @_ZNK17GrowableArrayBase6lengthEv(ptr noundef nonnull align 4 dereferenceable(8) %0) #1 comdat align 2 {
  %2 = alloca ptr, align 8
  store ptr %0, ptr %2, align 8
  %3 = load ptr, ptr %2, align 8
  %4 = getelementptr inbounds %class.GrowableArrayBase, ptr %3, i32 0, i32 0
  %5 = load i32, ptr %4, align 4
  ret i32 %5
}

; Function Attrs: mustprogress nounwind uwtable
define hidden void @_ZN14ciMethodBlocks15clear_processedEv(ptr noundef nonnull align 8 dereferenceable(40) %0) #1 align 2 {
  %2 = alloca ptr, align 8
  %3 = alloca i32, align 4
  store ptr %0, ptr %2, align 8
  %4 = load ptr, ptr %2, align 8
  store i32 0, ptr %3, align 4
  br label %5

5:                                                ; preds = %17, %1
  %6 = load i32, ptr %3, align 4
  %7 = getelementptr inbounds %class.ciMethodBlocks, ptr %4, i32 0, i32 2
  %8 = load ptr, ptr %7, align 8
  %9 = call noundef i32 @_ZNK17GrowableArrayBase6lengthEv(ptr noundef nonnull align 4 dereferenceable(8) %8)
  %10 = icmp slt i32 %6, %9
  br i1 %10, label %11, label %20

11:                                               ; preds = %5
  %12 = getelementptr inbounds %class.ciMethodBlocks, ptr %4, i32 0, i32 2
  %13 = load ptr, ptr %12, align 8
  %14 = load i32, ptr %3, align 4
  %15 = call noundef nonnull align 8 dereferenceable(8) ptr @_ZN17GrowableArrayViewIP7ciBlockE2atEi(ptr noundef nonnull align 8 dereferenceable(16) %13, i32 noundef %14)
  %16 = load ptr, ptr %15, align 8
  call void @_ZN7ciBlock15clear_processedEv(ptr noundef nonnull align 4 dereferenceable(28) %16)
  br label %17

17:                                               ; preds = %11
  %18 = load i32, ptr %3, align 4
  %19 = add nsw i32 %18, 1
  store i32 %19, ptr %3, align 4
  br label %5, !llvm.loop !15

20:                                               ; preds = %5
  ret void
}